target datalayout = "e-m:e-p270:32:32-p271:32:32-p272:64:64-i64:64-i128:128-f80:128-n8:16:32:64-S128"
target triple = "x86_64-pc-linux-gnu"

%struct._packet_info = type { ptr, ptr, i32, i32, %struct.nstime_t, %struct.nstime_t, %struct.nstime_t, i8, ptr, ptr, ptr, ptr, %struct._address, %struct._address, %struct._address, %struct._address, %struct._address, %struct._address, i32, ptr, i8, [3 x i8], %struct.anon, i32, i32, i32, i32, ptr, i8, ptr, ptr, i16, i16, i32, i32, i16, i32, i32, ptr, ptr, ptr, i8, i8, i16, i16, i16, i32, i16, i16, ptr, ptr, ptr, ptr, ptr, i32, i32 }
%struct.nstime_t = type { i64, i32 }
%struct._address = type { i32, i32, ptr, ptr }
%struct.anon = type { i8, [3 x i8] }

@hf_acn_ip_address_type = internal global i32 0, align 4
@hf_acn_ipv4 = internal global i32 0, align 4
@hf_acn_ipv6 = internal global i32 0, align 4
@hf_acn_port = internal global i32 0, align 4
@ett_acn_address = internal global i32 0, align 4
@.str.1905 = private unnamed_addr constant [13 x i8] c" %s, Port %d\00", align 1
@.str.1906 = private unnamed_addr constant [9 x i8] c" Port %d\00", align 1

; Function Attrs: null_pointer_is_valid sspstrong uwtable
define internal i32 @acn_add_address(ptr noundef %0, ptr noundef %1, ptr noundef %2, i32 noundef %3, ptr noundef %4) #0 {
  %6 = alloca ptr, align 8
  %7 = alloca ptr, align 8
  %8 = alloca ptr, align 8
  %9 = alloca i32, align 4
  %10 = alloca ptr, align 8
  %11 = alloca ptr, align 8
  %12 = alloca ptr, align 8
  %13 = alloca i8, align 1
  %14 = alloca i32, align 4
  store ptr %0, ptr %6, align 8
  store ptr %1, ptr %7, align 8
  store ptr %2, ptr %8, align 8
  store i32 %3, ptr %9, align 4
  store ptr %4, ptr %10, align 8
  call void @llvm.lifetime.start.p0(i64 8, ptr %11) #7
  call void @llvm.lifetime.start.p0(i64 8, ptr %12) #7
  store ptr null, ptr %12, align 8
  call void @llvm.lifetime.start.p0(i64 1, ptr %13) #7
  call void @llvm.lifetime.start.p0(i64 4, ptr %14) #7
  %15 = load ptr, ptr %6, align 8
  %16 = load i32, ptr %9, align 4
  %17 = call zeroext i8 @tvb_get_uint8(ptr noundef %15, i32 noundef %16)
  store i8 %17, ptr %13, align 1
  %18 = load i8, ptr %13, align 1
  %19 = zext i8 %18 to i32
  switch i32 %19, label %135 [
    i32 0, label %20
    i32 1, label %28
    i32 2, label %68
    i32 3, label %108
  ]

20:                                               ; preds = %5
  %21 = load ptr, ptr %8, align 8
  %22 = load i32, ptr @hf_acn_ip_address_type, align 4
  %23 = load ptr, ptr %6, align 8
  %24 = load i32, ptr %9, align 4
  %25 = call ptr @proto_tree_add_item(ptr noundef %21, i32 noundef %22, ptr noundef %23, i32 noundef %24, i32 noundef 1, i32 noundef 0)
  %26 = load i32, ptr %9, align 4
  %27 = add i32 %26, 1
  store i32 %27, ptr %9, align 4
  br label %135

28:                                               ; preds = %5
  %29 = load ptr, ptr %8, align 8
  %30 = load ptr, ptr %6, align 8
  %31 = load i32, ptr %9, align 4
  %32 = load i32, ptr @ett_acn_address, align 4
  %33 = load ptr, ptr %10, align 8
  %34 = call ptr @proto_tree_add_subtree(ptr noundef %29, ptr noundef %30, i32 noundef %31, i32 noundef 7, i32 noundef %32, ptr noundef %11, ptr noundef %33)
  store ptr %34, ptr %12, align 8
  %35 = load ptr, ptr %12, align 8
  %36 = load i32, ptr @hf_acn_ip_address_type, align 4
  %37 = load ptr, ptr %6, align 8
  %38 = load i32, ptr %9, align 4
  %39 = call ptr @proto_tree_add_item(ptr noundef %35, i32 noundef %36, ptr noundef %37, i32 noundef %38, i32 noundef 1, i32 noundef 0)
  %40 = load i32, ptr %9, align 4
  %41 = add i32 %40, 1
  store i32 %41, ptr %9, align 4
  %42 = load ptr, ptr %6, align 8
  %43 = load i32, ptr %9, align 4
  %44 = call zeroext i16 @tvb_get_ntohs(ptr noundef %42, i32 noundef %43)
  %45 = zext i16 %44 to i32
  store i32 %45, ptr %14, align 4
  %46 = load ptr, ptr %12, align 8
  %47 = load i32, ptr @hf_acn_port, align 4
  %48 = load ptr, ptr %6, align 8
  %49 = load i32, ptr %9, align 4
  %50 = call ptr @proto_tree_add_item(ptr noundef %46, i32 noundef %47, ptr noundef %48, i32 noundef %49, i32 noundef 2, i32 noundef 0)
  %51 = load i32, ptr %9, align 4
  %52 = add i32 %51, 2
  store i32 %52, ptr %9, align 4
  %53 = load ptr, ptr %12, align 8
  %54 = load i32, ptr @hf_acn_ipv4, align 4
  %55 = load ptr, ptr %6, align 8
  %56 = load i32, ptr %9, align 4
  %57 = call ptr @proto_tree_add_item(ptr noundef %53, i32 noundef %54, ptr noundef %55, i32 noundef %56, i32 noundef 4, i32 noundef 0)
  %58 = load ptr, ptr %11, align 8
  %59 = load ptr, ptr %7, align 8
  %60 = getelementptr inbounds nuw %struct._packet_info, ptr %59, i32 0, i32 51
  %61 = load ptr, ptr %60, align 8
  %62 = load ptr, ptr %6, align 8
  %63 = load i32, ptr %9, align 4
  %64 = call ptr @tvb_address_to_str(ptr noundef %61, ptr noundef %62, i32 noundef 2, i32 noundef %63)
  %65 = load i32, ptr %14, align 4
  call void (ptr, ptr, ...) @proto_item_append_text(ptr noundef %58, ptr noundef @.str.1905, ptr noundef %64, i32 noundef %65)
  %66 = load i32, ptr %9, align 4
  %67 = add i32 %66, 4
  store i32 %67, ptr %9, align 4
  br label %135

68:                                               ; preds = %5
  %69 = load ptr, ptr %8, align 8
  %70 = load ptr, ptr %6, align 8
  %71 = load i32, ptr %9, align 4
  %72 = load i32, ptr @ett_acn_address, align 4
  %73 = load ptr, ptr %10, align 8
  %74 = call ptr @proto_tree_add_subtree(ptr noundef %69, ptr noundef %70, i32 noundef %71, i32 noundef 19, i32 noundef %72, ptr noundef %11, ptr noundef %73)
  store ptr %74, ptr %12, align 8
  %75 = load ptr, ptr %12, align 8
  %76 = load i32, ptr @hf_acn_ip_address_type, align 4
  %77 = load ptr, ptr %6, align 8
  %78 = load i32, ptr %9, align 4
  %79 = call ptr @proto_tree_add_item(ptr noundef %75, i32 noundef %76, ptr noundef %77, i32 noundef %78, i32 noundef 1, i32 noundef 0)
  %80 = load i32, ptr %9, align 4
  %81 = add i32 %80, 1
  store i32 %81, ptr %9, align 4
  %82 = load ptr, ptr %6, align 8
  %83 = load i32, ptr %9, align 4
  %84 = call zeroext i16 @tvb_get_ntohs(ptr noundef %82, i32 noundef %83)
  %85 = zext i16 %84 to i32
  store i32 %85, ptr %14, align 4
  %86 = load ptr, ptr %12, align 8
  %87 = load i32, ptr @hf_acn_port, align 4
  %88 = load ptr, ptr %6, align 8
  %89 = load i32, ptr %9, align 4
  %90 = call ptr @proto_tree_add_item(ptr noundef %86, i32 noundef %87, ptr noundef %88, i32 noundef %89, i32 noundef 2, i32 noundef 0)
  %91 = load i32, ptr %9, align 4
  %92 = add i32 %91, 2
  store i32 %92, ptr %9, align 4
  %93 = load ptr, ptr %12, align 8
  %94 = load i32, ptr @hf_acn_ipv6, align 4
  %95 = load ptr, ptr %6, align 8
  %96 = load i32, ptr %9, align 4
  %97 = call ptr @proto_tree_add_item(ptr noundef %93, i32 noundef %94, ptr noundef %95, i32 noundef %96, i32 noundef 16, i32 noundef 0)
  %98 = load ptr, ptr %11, align 8
  %99 = load ptr, ptr %7, align 8
  %100 = getelementptr inbounds nuw %struct._packet_info, ptr %99, i32 0, i32 51
  %101 = load ptr, ptr %100, align 8
  %102 = load ptr, ptr %6, align 8
  %103 = load i32, ptr %9, align 4
  %104 = call ptr @tvb_address_to_str(ptr noundef %101, ptr noundef %102, i32 noundef 3, i32 noundef %103)
  %105 = load i32, ptr %14, align 4
  call void (ptr, ptr, ...) @proto_item_append_text(ptr noundef %98, ptr noundef @.str.1905, ptr noundef %104, i32 noundef %105)
  %106 = load i32, ptr %9, align 4
  %107 = add i32 %106, 16
  store i32 %107, ptr %9, align 4
  br label %135

108:                                              ; preds = %5
  %109 = load ptr, ptr %8, align 8
  %110 = load ptr, ptr %6, align 8
  %111 = load i32, ptr %9, align 4
  %112 = load i32, ptr @ett_acn_address, align 4
  %113 = load ptr, ptr %10, align 8
  %114 = call ptr @proto_tree_add_subtree(ptr noundef %109, ptr noundef %110, i32 noundef %111, i32 noundef 3, i32 noundef %112, ptr noundef %11, ptr noundef %113)
  store ptr %114, ptr %12, align 8
  %115 = load ptr, ptr %12, align 8
  %116 = load i32, ptr @hf_acn_ip_address_type, align 4
  %117 = load ptr, ptr %6, align 8
  %118 = load i32, ptr %9, align 4
  %119 = call ptr @proto_tree_add_item(ptr noundef %115, i32 noundef %116, ptr noundef %117, i32 noundef %118, i32 noundef 1, i32 noundef 0)
  %120 = load i32, ptr %9, align 4
  %121 = add i32 %120, 1
  store i32 %121, ptr %9, align 4
  %122 = load ptr, ptr %6, align 8
  %123 = load i32, ptr %9, align 4
  %124 = call zeroext i16 @tvb_get_ntohs(ptr noundef %122, i32 noundef %123)
  %125 = zext i16 %124 to i32
  store i32 %125, ptr %14, align 4
  %126 = load ptr, ptr %12, align 8
  %127 = load i32, ptr @hf_acn_port, align 4
  %128 = load ptr, ptr %6, align 8
  %129 = load i32, ptr %9, align 4
  %130 = call ptr @proto_tree_add_item(ptr noundef %126, i32 noundef %127, ptr noundef %128, i32 noundef %129, i32 noundef 2, i32 noundef 0)
  %131 = load ptr, ptr %11, align 8
  %132 = load i32, ptr %14, align 4
  call void (ptr, ptr, ...) @proto_item_append_text(ptr noundef %131, ptr noundef @.str.1906, i32 noundef %132)
  %133 = load i32, ptr %9, align 4
  %134 = add i32 %133, 2
  store i32 %134, ptr %9, align 4
  br label %135

135:                                              ; preds = %5, %108, %68, %28, %20
  %136 = load i32, ptr %9, align 4
  call void @llvm.lifetime.end.p0(i64 4, ptr %14) #7
  call void @llvm.lifetime.end.p0(i64 1, ptr %13) #7
  call void @llvm.lifetime.end.p0(i64 8, ptr %12) #7
  call void @llvm.lifetime.end.p0(i64 8, ptr %11) #7
  ret i32 %136
}