; Function Attrs: null_pointer_is_valid sspstrong uwtable
define internal fastcc noundef i32 @acn_add_address(ptr noundef %0, ptr noundef readonly captures(none) %1, ptr noundef %2, i32 noundef %3, ptr noundef %4) unnamed_addr #0 {
  %6 = alloca ptr, align 8
  call void @llvm.lifetime.start.p0(i64 8, ptr nonnull %6) #7
  %7 = tail call zeroext i8 @tvb_get_uint8(ptr noundef %0, i32 noundef %3)
  switch i8 %7, label %60 [
    i8 0, label %8
    i8 1, label %12
    i8 2, label %30
    i8 3, label %48
  ]

8:                                                ; preds = %5
  %9 = load i32, ptr @hf_acn_ip_address_type, align 4
  %10 = tail call ptr @proto_tree_add_item(ptr noundef %2, i32 noundef %9, ptr noundef %0, i32 noundef %3, i32 noundef 1, i32 noundef 0)
  %11 = add i32 %3, 1
  br label %60

12:                                               ; preds = %5
  %13 = load i32, ptr @ett_acn_address, align 4
  %14 = call ptr @proto_tree_add_subtree(ptr noundef %2, ptr noundef %0, i32 noundef %3, i32 noundef 7, i32 noundef %13, ptr noundef nonnull %6, ptr noundef %4)
  %15 = load i32, ptr @hf_acn_ip_address_type, align 4
  %16 = call ptr @proto_tree_add_item(ptr noundef %14, i32 noundef %15, ptr noundef %0, i32 noundef %3, i32 noundef 1, i32 noundef 0)
  %17 = add i32 %3, 1
  %18 = call zeroext i16 @tvb_get_ntohs(ptr noundef %0, i32 noundef %17)
  %19 = zext i16 %18 to i32
  %20 = load i32, ptr @hf_acn_port, align 4
  %21 = call ptr @proto_tree_add_item(ptr noundef %14, i32 noundef %20, ptr noundef %0, i32 noundef %17, i32 noundef 2, i32 noundef 0)
  %22 = add i32 %3, 3
  %23 = load i32, ptr @hf_acn_ipv4, align 4
  %24 = call ptr @proto_tree_add_item(ptr noundef %14, i32 noundef %23, ptr noundef %0, i32 noundef %22, i32 noundef 4, i32 noundef 0)
  %25 = load ptr, ptr %6, align 8
  %26 = getelementptr inbounds nuw i8, ptr %1, i64 408
  %27 = load ptr, ptr %26, align 8
  %28 = call ptr @tvb_address_to_str(ptr noundef %27, ptr noundef %0, i32 noundef 2, i32 noundef %22)
  call void (ptr, ptr, ...) @proto_item_append_text(ptr noundef %25, ptr noundef nonnull @.str.1905, ptr noundef %28, i32 noundef %19)
  %29 = add i32 %3, 7
  br label %60

30:                                               ; preds = %5
  %31 = load i32, ptr @ett_acn_address, align 4
  %32 = call ptr @proto_tree_add_subtree(ptr noundef %2, ptr noundef %0, i32 noundef %3, i32 noundef 19, i32 noundef %31, ptr noundef nonnull %6, ptr noundef %4)
  %33 = load i32, ptr @hf_acn_ip_address_type, align 4
  %34 = call ptr @proto_tree_add_item(ptr noundef %32, i32 noundef %33, ptr noundef %0, i32 noundef %3, i32 noundef 1, i32 noundef 0)
  %35 = add i32 %3, 1
  %36 = call zeroext i16 @tvb_get_ntohs(ptr noundef %0, i32 noundef %35)
  %37 = zext i16 %36 to i32
  %38 = load i32, ptr @hf_acn_port, align 4
  %39 = call ptr @proto_tree_add_item(ptr noundef %32, i32 noundef %38, ptr noundef %0, i32 noundef %35, i32 noundef 2, i32 noundef 0)
  %40 = add i32 %3, 3
  %41 = load i32, ptr @hf_acn_ipv6, align 4
  %42 = call ptr @proto_tree_add_item(ptr noundef %32, i32 noundef %41, ptr noundef %0, i32 noundef %40, i32 noundef 16, i32 noundef 0)
  %43 = load ptr, ptr %6, align 8
  %44 = getelementptr inbounds nuw i8, ptr %1, i64 408
  %45 = load ptr, ptr %44, align 8
  %46 = call ptr @tvb_address_to_str(ptr noundef %45, ptr noundef %0, i32 noundef 3, i32 noundef %40)
  call void (ptr, ptr, ...) @proto_item_append_text(ptr noundef %43, ptr noundef nonnull @.str.1905, ptr noundef %46, i32 noundef %37)
  %47 = add i32 %3, 19
  br label %60

48:                                               ; preds = %5
  %49 = load i32, ptr @ett_acn_address, align 4
  %50 = call ptr @proto_tree_add_subtree(ptr noundef %2, ptr noundef %0, i32 noundef %3, i32 noundef 3, i32 noundef %49, ptr noundef nonnull %6, ptr noundef %4)
  %51 = load i32, ptr @hf_acn_ip_address_type, align 4
  %52 = call ptr @proto_tree_add_item(ptr noundef %50, i32 noundef %51, ptr noundef %0, i32 noundef %3, i32 noundef 1, i32 noundef 0)
  %53 = add i32 %3, 1
  %54 = call zeroext i16 @tvb_get_ntohs(ptr noundef %0, i32 noundef %53)
  %55 = zext i16 %54 to i32
  %56 = load i32, ptr @hf_acn_port, align 4
  %57 = call ptr @proto_tree_add_item(ptr noundef %50, i32 noundef %56, ptr noundef %0, i32 noundef %53, i32 noundef 2, i32 noundef 0)
  %58 = load ptr, ptr %6, align 8
  call void (ptr, ptr, ...) @proto_item_append_text(ptr noundef %58, ptr noundef nonnull @.str.1906, i32 noundef %55)
  %59 = add i32 %3, 3
  br label %60

60:                                               ; preds = %48, %30, %12, %8, %5
  %.0 = phi i32 [ %3, %5 ], [ %59, %48 ], [ %47, %30 ], [ %29, %12 ], [ %11, %8 ]
  call void @llvm.lifetime.end.p0(i64 8, ptr nonnull %6) #7
  ret i32 %.0
}